; Function Attrs: nounwind uwtable
define internal fastcc range(i32 0, 2) i32 @r_mark_suffix_with_optional_y_consonant(ptr noundef %0) unnamed_addr #0 {
  %2 = getelementptr inbounds nuw i8, ptr %0, i64 12
  %3 = load i32, ptr %2, align 4
  %4 = getelementptr inbounds nuw i8, ptr %0, i64 8
  %5 = load i32, ptr %4, align 8
  %.neg60 = sub i32 %5, %3
  %6 = getelementptr inbounds nuw i8, ptr %0, i64 16
  %7 = load i32, ptr %6, align 8
  %.not = icmp sgt i32 %5, %7
  %.pre80.pre81 = load ptr, ptr %0, align 8
  br i1 %.not, label %8, label %16

8:                                                ; preds = %1
  %9 = add nsw i32 %5, -1
  %10 = sext i32 %9 to i64
  %11 = getelementptr inbounds i8, ptr %.pre80.pre81, i64 %10
  %12 = load i8, ptr %11, align 1
  %.not58 = icmp eq i8 %12, 121
  br i1 %.not58, label %13, label %16

13:                                               ; preds = %8
  store i32 %9, ptr %4, align 8
  %14 = tail call i32 @in_grouping_b_U(ptr noundef nonnull %0, ptr noundef nonnull @g_vowel, i32 noundef 97, i32 noundef 305, i32 noundef 0) #3
  %.not59 = icmp eq i32 %14, 0
  %.pre = load i32, ptr %2, align 4
  br i1 %.not59, label %.thread, label %._crit_edge

._crit_edge:                                      ; preds = %13
  %.pre79 = load i32, ptr %6, align 8
  %.pre80.pre = load ptr, ptr %0, align 8
  br label %16

.thread:                                          ; preds = %13
  %.neg = sub i32 %9, %3
  %15 = add i32 %.neg, %.pre
  br label %.critedge.sink.split

16:                                               ; preds = %._crit_edge, %1, %8
  %.pre80 = phi ptr [ %.pre80.pre, %._crit_edge ], [ %.pre80.pre81, %1 ], [ %.pre80.pre81, %8 ]
  %17 = phi i32 [ %.pre79, %._crit_edge ], [ %7, %1 ], [ %7, %8 ]
  %18 = phi i32 [ %.pre, %._crit_edge ], [ %3, %1 ], [ %3, %8 ]
  %19 = add i32 %18, %.neg60
  store i32 %19, ptr %4, align 8
  %.not61 = icmp sgt i32 %19, %17
  br i1 %.not61, label %20, label %25

20:                                               ; preds = %16
  %21 = sext i32 %19 to i64
  %22 = getelementptr i8, ptr %.pre80, i64 %21
  %23 = getelementptr i8, ptr %22, i64 -1
  %24 = load i8, ptr %23, align 1
  %.not62 = icmp eq i8 %24, 121
  br i1 %.not62, label %.critedge, label %25

25:                                               ; preds = %16, %20
  %26 = tail call i32 @skip_b_utf8(ptr noundef %.pre80, i32 noundef %19, i32 noundef %17, i32 noundef 1) #3
  %27 = icmp sgt i32 %26, -1
  br i1 %27, label %28, label %.critedge

28:                                               ; preds = %25
  store i32 %26, ptr %4, align 8
  %29 = tail call i32 @in_grouping_b_U(ptr noundef nonnull %0, ptr noundef nonnull @g_vowel, i32 noundef 97, i32 noundef 305, i32 noundef 0) #3
  %.not63 = icmp eq i32 %29, 0
  br i1 %.not63, label %30, label %.critedge

30:                                               ; preds = %28
  %31 = load i32, ptr %2, align 4
  %32 = add i32 %31, %.neg60
  br label %.critedge.sink.split

.critedge.sink.split:                             ; preds = %30, %.thread
  %.sink = phi i32 [ %15, %.thread ], [ %32, %30 ]
  store i32 %.sink, ptr %4, align 8
  br label %.critedge

.critedge:                                        ; preds = %.critedge.sink.split, %20, %28, %25
  %not.switch69 = phi i32 [ 0, %28 ], [ 0, %25 ], [ 0, %20 ], [ 1, %.critedge.sink.split ]
  ret i32 %not.switch69
}